; Function Attrs: nounwind uwtable
define zeroext range(i8 0, 2) i8 @l_Lean_IR_Arg_hasFreeVar(ptr noundef %0, ptr noundef %1) local_unnamed_addr #0 {
  %3 = ptrtoint ptr %0 to i64
  %4 = and i64 %3, 1
  %.not.i.i = icmp eq i64 %4, 0
  br i1 %.not.i.i, label %8, label %5

5:                                                ; preds = %2
  %6 = lshr i64 %3, 1
  %7 = trunc i64 %6 to i32
  br label %lean_obj_tag.exit.i

8:                                                ; preds = %2
  %9 = getelementptr i8, ptr %0, i64 4
  %.val.i.i = load i32, ptr %9, align 4
  %10 = lshr i32 %.val.i.i, 24
  br label %lean_obj_tag.exit.i

lean_obj_tag.exit.i:                              ; preds = %8, %5
  %.0.i6.i = phi i32 [ %7, %5 ], [ %10, %8 ]
  %11 = icmp eq i32 %.0.i6.i, 0
  br i1 %11, label %12, label %l_Lean_IR_HasIndex_visitArg.exit

12:                                               ; preds = %lean_obj_tag.exit.i
  %13 = getelementptr inbounds nuw i8, ptr %0, i64 8
  %14 = load ptr, ptr %13, align 8, !tbaa !13
  %15 = ptrtoint ptr %1 to i64
  %16 = and i64 %15, 1
  %17 = icmp ne i64 %16, 0
  %18 = ptrtoint ptr %14 to i64
  %19 = and i64 %18, 1
  %20 = icmp ne i64 %19, 0
  %or.cond.i = select i1 %17, i1 %20, i1 false
  br i1 %or.cond.i, label %21, label %.critedge.i.i, !prof !23

21:                                               ; preds = %12
  %22 = icmp eq ptr %1, %14
  br label %lean_nat_eq.exit.i

.critedge.i.i:                                    ; preds = %12
  %23 = tail call zeroext i1 @lean_nat_big_eq(ptr noundef %1, ptr noundef %14) #3
  br label %lean_nat_eq.exit.i

lean_nat_eq.exit.i:                               ; preds = %.critedge.i.i, %21
  %.0.i.i = phi i1 [ %22, %21 ], [ %23, %.critedge.i.i ]
  %24 = zext i1 %.0.i.i to i8
  br label %l_Lean_IR_HasIndex_visitArg.exit

l_Lean_IR_HasIndex_visitArg.exit:                 ; preds = %lean_obj_tag.exit.i, %lean_nat_eq.exit.i
  %.0.i = phi i8 [ %24, %lean_nat_eq.exit.i ], [ 0, %lean_obj_tag.exit.i ]
  ret i8 %.0.i
}